target datalayout = "e-m:e-p270:32:32-p271:32:32-p272:64:64-i64:64-i128:128-f80:128-n8:16:32:64-S128"
target triple = "x86_64-pc-linux-gnu"

%struct.strvec = type { ptr, i64, i64 }
%struct.anon.10 = type { %struct.contains_cache, %struct.contains_cache }
%struct.contains_cache = type { i32, i32, i32, ptr }
%struct.used_atom = type { i32, ptr, i32, i32, %union.anon }
%union.anon = type { %struct.anon.1 }
%struct.anon.1 = type { i32, %struct.process_trailer_options, ptr, i32 }
%struct.process_trailer_options = type { i32, i32, i32, i32, i32, i32, i32, i32, ptr, ptr, ptr, ptr }
%struct.ref_array = type { i32, i32, ptr, ptr, ptr, i64 }
%struct.ref_filter_cbdata = type { ptr, ptr }
%struct.ref_filter = type { ptr, %struct.strvec, %struct.oid_array, ptr, ptr, ptr, ptr, i8, i32, i32, i32, i32, %struct.anon.10 }
%struct.oid_array = type { ptr, i64, i64, i32 }
%struct.ref_filter_and_format_cbdata = type { ptr, ptr, %struct.ref_filter_and_format_internal }
%struct.ref_filter_and_format_internal = type { i32 }
%struct.ref_sorting = type { ptr, i32, i32 }

@used_atom = internal global ptr null, align 8
@the_repository = external global ptr, align 8
@used_atom_cnt = internal global i32 0, align 4
@save_commit_buffer = external global i32, align 4
@.str.16 = private unnamed_addr constant [13 x i8] c"ref-filter.c\00", align 1
@.str.17 = private unnamed_addr constant [17 x i8] c"qsort_s() failed\00", align 1

; Function Attrs: nounwind uwtable
define dso_local void @ref_array_sort(ptr noundef %0, ptr noundef %1) #0 {
  %3 = alloca ptr, align 8
  %4 = alloca ptr, align 8
  store ptr %0, ptr %3, align 8, !tbaa !134
  store ptr %1, ptr %4, align 8, !tbaa !66
  %5 = load ptr, ptr %3, align 8, !tbaa !134
  %6 = icmp ne ptr %5, null
  br i1 %6, label %7, label %22

7:                                                ; preds = %2
  br label %8

8:                                                ; preds = %7
  %9 = load ptr, ptr %4, align 8, !tbaa !66
  %10 = getelementptr inbounds nuw %struct.ref_array, ptr %9, i32 0, i32 2
  %11 = load ptr, ptr %10, align 8, !tbaa !78
  %12 = load ptr, ptr %4, align 8, !tbaa !66
  %13 = getelementptr inbounds nuw %struct.ref_array, ptr %12, i32 0, i32 0
  %14 = load i32, ptr %13, align 8, !tbaa !72
  %15 = sext i32 %14 to i64
  %16 = load ptr, ptr %3, align 8, !tbaa !134
  %17 = call i32 @git_qsort_s(ptr noundef %11, i64 noundef %15, i64 noundef 8, ptr noundef @compare_refs, ptr noundef %16)
  %18 = icmp ne i32 %17, 0
  br i1 %18, label %19, label %20

19:                                               ; preds = %8
  call void (ptr, i32, ptr, ...) @BUG_fl(ptr noundef @.str.16, i32 noundef 3448, ptr noundef @.str.17) #13
  unreachable

20:                                               ; preds = %8
  br label %21

21:                                               ; preds = %20
  br label %22

22:                                               ; preds = %21, %2
  ret void
}

; Function Attrs: nounwind uwtable
define dso_local i32 @filter_refs(ptr noundef %0, ptr noundef %1, i32 noundef %2) #0 {
  %4 = alloca ptr, align 8
  %5 = alloca ptr, align 8
  %6 = alloca i32, align 4
  %7 = alloca %struct.ref_filter_cbdata, align 8
  %8 = alloca i32, align 4
  %9 = alloca i32, align 4
  store ptr %0, ptr %4, align 8, !tbaa !66
  store ptr %1, ptr %5, align 8, !tbaa !113
  store i32 %2, ptr %6, align 4, !tbaa !15
  call void @llvm.lifetime.start.p0(i64 16, ptr %7) #11
  call void @llvm.lifetime.start.p0(i64 4, ptr %8) #11
  call void @llvm.lifetime.start.p0(i64 4, ptr %9) #11
  store i32 0, ptr %9, align 4, !tbaa !15
  %10 = load ptr, ptr %4, align 8, !tbaa !66
  %11 = getelementptr inbounds nuw %struct.ref_filter_cbdata, ptr %7, i32 0, i32 0
  store ptr %10, ptr %11, align 8, !tbaa !115
  %12 = load ptr, ptr %5, align 8, !tbaa !113
  %13 = getelementptr inbounds nuw %struct.ref_filter_cbdata, ptr %7, i32 0, i32 1
  store ptr %12, ptr %13, align 8, !tbaa !117
  %14 = load i32, ptr @save_commit_buffer, align 4, !tbaa !15
  store i32 %14, ptr %8, align 4, !tbaa !15
  store i32 0, ptr @save_commit_buffer, align 4, !tbaa !15
  %15 = load ptr, ptr %5, align 8, !tbaa !113
  %16 = load i32, ptr %6, align 4, !tbaa !15
  %17 = call i32 @do_filter_refs(ptr noundef %15, i32 noundef %16, ptr noundef @filter_one, ptr noundef %7)
  store i32 %17, ptr %9, align 4, !tbaa !15
  %18 = load ptr, ptr %4, align 8, !tbaa !66
  %19 = load ptr, ptr %5, align 8, !tbaa !113
  %20 = getelementptr inbounds nuw %struct.ref_filter, ptr %19, i32 0, i32 5
  call void @reach_filter(ptr noundef %18, ptr noundef %20, i32 noundef 1)
  %21 = load ptr, ptr %4, align 8, !tbaa !66
  %22 = load ptr, ptr %5, align 8, !tbaa !113
  %23 = getelementptr inbounds nuw %struct.ref_filter, ptr %22, i32 0, i32 6
  call void @reach_filter(ptr noundef %21, ptr noundef %23, i32 noundef 0)
  %24 = load i32, ptr %8, align 4, !tbaa !15
  store i32 %24, ptr @save_commit_buffer, align 4, !tbaa !15
  %25 = load i32, ptr %9, align 4, !tbaa !15
  call void @llvm.lifetime.end.p0(i64 4, ptr %9) #11
  call void @llvm.lifetime.end.p0(i64 4, ptr %8) #11
  call void @llvm.lifetime.end.p0(i64 16, ptr %7) #11
  ret i32 %25
}

; Function Attrs: inlinehint nounwind uwtable
define internal i32 @can_do_iterative_format(ptr noundef %0, ptr noundef %1) #1 {
  %3 = alloca i32, align 4
  %4 = alloca ptr, align 8
  %5 = alloca ptr, align 8
  %6 = alloca i64, align 8
  %7 = alloca i32, align 4
  store ptr %0, ptr %4, align 8, !tbaa !113
  store ptr %1, ptr %5, align 8, !tbaa !134
  %8 = load ptr, ptr %5, align 8, !tbaa !134
  %9 = icmp ne ptr %8, null
  br i1 %9, label %10, label %31

10:                                               ; preds = %2
  %11 = load ptr, ptr %5, align 8, !tbaa !134
  %12 = getelementptr inbounds nuw %struct.ref_sorting, ptr %11, i32 0, i32 0
  %13 = load ptr, ptr %12, align 8, !tbaa !140
  %14 = icmp ne ptr %13, null
  br i1 %14, label %30, label %15

15:                                               ; preds = %10
  %16 = load ptr, ptr %5, align 8, !tbaa !134
  %17 = getelementptr inbounds nuw %struct.ref_sorting, ptr %16, i32 0, i32 2
  %18 = load i32, ptr %17, align 4, !tbaa !142
  %19 = icmp ne i32 %18, 0
  br i1 %19, label %30, label %20

20:                                               ; preds = %15
  %21 = load ptr, ptr @used_atom, align 8, !tbaa !26
  %22 = load ptr, ptr %5, align 8, !tbaa !134
  %23 = getelementptr inbounds nuw %struct.ref_sorting, ptr %22, i32 0, i32 1
  %24 = load i32, ptr %23, align 8, !tbaa !143
  %25 = sext i32 %24 to i64
  %26 = getelementptr inbounds %struct.used_atom, ptr %21, i64 %25
  %27 = getelementptr inbounds nuw %struct.used_atom, ptr %26, i32 0, i32 0
  %28 = load i32, ptr %27, align 8, !tbaa !28
  %29 = icmp ne i32 %28, 0
  br i1 %29, label %30, label %31

30:                                               ; preds = %20, %15, %10
  store i32 0, ptr %3, align 4
  br label %74

31:                                               ; preds = %20, %2
  call void @llvm.lifetime.start.p0(i64 8, ptr %6) #11
  store i64 0, ptr %6, align 8, !tbaa !71
  br label %32

32:                                               ; preds = %55, %31
  %33 = load i64, ptr %6, align 8, !tbaa !71
  %34 = load i32, ptr @used_atom_cnt, align 4, !tbaa !15
  %35 = sext i32 %34 to i64
  %36 = icmp ult i64 %33, %35
  br i1 %36, label %38, label %37

37:                                               ; preds = %32
  store i32 2, ptr %7, align 4
  br label %58

38:                                               ; preds = %32
  %39 = load ptr, ptr @used_atom, align 8, !tbaa !26
  %40 = load i64, ptr %6, align 8, !tbaa !71
  %41 = getelementptr inbounds nuw %struct.used_atom, ptr %39, i64 %40
  %42 = getelementptr inbounds nuw %struct.used_atom, ptr %41, i32 0, i32 0
  %43 = load i32, ptr %42, align 8, !tbaa !28
  %44 = icmp eq i32 %43, 45
  br i1 %44, label %45, label %46

45:                                               ; preds = %38
  store i32 0, ptr %3, align 4
  store i32 1, ptr %7, align 4
  br label %58

46:                                               ; preds = %38
  %47 = load ptr, ptr @used_atom, align 8, !tbaa !26
  %48 = load i64, ptr %6, align 8, !tbaa !71
  %49 = getelementptr inbounds nuw %struct.used_atom, ptr %47, i64 %48
  %50 = getelementptr inbounds nuw %struct.used_atom, ptr %49, i32 0, i32 0
  %51 = load i32, ptr %50, align 8, !tbaa !28
  %52 = icmp eq i32 %51, 46
  br i1 %52, label %53, label %54

53:                                               ; preds = %46
  store i32 0, ptr %3, align 4
  store i32 1, ptr %7, align 4
  br label %58

54:                                               ; preds = %46
  br label %55

55:                                               ; preds = %54
  %56 = load i64, ptr %6, align 8, !tbaa !71
  %57 = add i64 %56, 1
  store i64 %57, ptr %6, align 8, !tbaa !71
  br label %32, !llvm.loop !144

58:                                               ; preds = %53, %45, %37
  call void @llvm.lifetime.end.p0(i64 8, ptr %6) #11
  %59 = load i32, ptr %7, align 4
  switch i32 %59, label %76 [
    i32 2, label %60
    i32 1, label %74
  ]

60:                                               ; preds = %58
  %61 = load ptr, ptr %4, align 8, !tbaa !113
  %62 = getelementptr inbounds nuw %struct.ref_filter, ptr %61, i32 0, i32 5
  %63 = load ptr, ptr %62, align 8, !tbaa !145
  %64 = icmp ne ptr %63, null
  br i1 %64, label %70, label %65

65:                                               ; preds = %60
  %66 = load ptr, ptr %4, align 8, !tbaa !113
  %67 = getelementptr inbounds nuw %struct.ref_filter, ptr %66, i32 0, i32 6
  %68 = load ptr, ptr %67, align 8, !tbaa !146
  %69 = icmp ne ptr %68, null
  br label %70

70:                                               ; preds = %65, %60
  %71 = phi i1 [ true, %60 ], [ %69, %65 ]
  %72 = xor i1 %71, true
  %73 = zext i1 %72 to i32
  store i32 %73, ptr %3, align 4
  br label %74

74:                                               ; preds = %70, %58, %30
  %75 = load i32, ptr %3, align 4
  ret i32 %75

76:                                               ; preds = %58
  unreachable
}

; Function Attrs: nounwind uwtable
define dso_local void @filter_and_format_refs(ptr noundef %0, i32 noundef %1, ptr noundef %2, ptr noundef %3) #0 {
  %5 = alloca ptr, align 8
  %6 = alloca i32, align 4
  %7 = alloca ptr, align 8
  %8 = alloca ptr, align 8
  %9 = alloca i32, align 4
  %10 = alloca %struct.ref_filter_and_format_cbdata, align 8
  %11 = alloca %struct.ref_array, align 8
  store ptr %0, ptr %5, align 8, !tbaa !113
  store i32 %1, ptr %6, align 4, !tbaa !15
  store ptr %2, ptr %7, align 8, !tbaa !134
  store ptr %3, ptr %8, align 8, !tbaa !17
  %12 = load ptr, ptr %5, align 8, !tbaa !113
  %13 = load ptr, ptr %7, align 8, !tbaa !134
  %14 = call i32 @can_do_iterative_format(ptr noundef %12, ptr noundef %13)
  %15 = icmp ne i32 %14, 0
  br i1 %15, label %16, label %28

16:                                               ; preds = %4
  call void @llvm.lifetime.start.p0(i64 4, ptr %9) #11
  call void @llvm.lifetime.start.p0(i64 24, ptr %10) #11
  %17 = getelementptr inbounds nuw %struct.ref_filter_and_format_cbdata, ptr %10, i32 0, i32 0
  %18 = load ptr, ptr %5, align 8, !tbaa !113
  store ptr %18, ptr %17, align 8, !tbaa !136
  %19 = getelementptr inbounds nuw %struct.ref_filter_and_format_cbdata, ptr %10, i32 0, i32 1
  %20 = load ptr, ptr %8, align 8, !tbaa !17
  store ptr %20, ptr %19, align 8, !tbaa !139
  %21 = getelementptr inbounds nuw %struct.ref_filter_and_format_cbdata, ptr %10, i32 0, i32 2
  call void @llvm.memset.p0.i64(ptr align 8 %21, i8 0, i64 4, i1 false)
  %22 = getelementptr i8, ptr %10, i64 20
  call void @llvm.memset.p0.i64(ptr align 4 %22, i8 0, i64 4, i1 false)
  %23 = load i32, ptr @save_commit_buffer, align 4, !tbaa !15
  store i32 %23, ptr %9, align 4, !tbaa !15
  store i32 0, ptr @save_commit_buffer, align 4, !tbaa !15
  %24 = load ptr, ptr %5, align 8, !tbaa !113
  %25 = load i32, ptr %6, align 4, !tbaa !15
  %26 = call i32 @do_filter_refs(ptr noundef %24, i32 noundef %25, ptr noundef @filter_and_format_one, ptr noundef %10)
  %27 = load i32, ptr %9, align 4, !tbaa !15
  store i32 %27, ptr @save_commit_buffer, align 4, !tbaa !15
  call void @llvm.lifetime.end.p0(i64 24, ptr %10) #11
  call void @llvm.lifetime.end.p0(i64 4, ptr %9) #11
  br label %36

28:                                               ; preds = %4
  call void @llvm.lifetime.start.p0(i64 40, ptr %11) #11
  call void @llvm.memset.p0.i64(ptr align 8 %11, i8 0, i64 40, i1 false)
  %29 = load ptr, ptr %5, align 8, !tbaa !113
  %30 = load i32, ptr %6, align 4, !tbaa !15
  %31 = call i32 @filter_refs(ptr noundef %11, ptr noundef %29, i32 noundef %30)
  %32 = load ptr, ptr @the_repository, align 8, !tbaa !56
  call void @filter_ahead_behind(ptr noundef %32, ptr noundef %11)
  %33 = load ptr, ptr @the_repository, align 8, !tbaa !56
  call void @filter_is_base(ptr noundef %33, ptr noundef %11)
  %34 = load ptr, ptr %7, align 8, !tbaa !134
  call void @ref_array_sort(ptr noundef %34, ptr noundef %11)
  %35 = load ptr, ptr %8, align 8, !tbaa !17
  call void @print_formatted_ref_array(ptr noundef %11, ptr noundef %35)
  call void @ref_array_clear(ptr noundef %11)
  call void @llvm.lifetime.end.p0(i64 40, ptr %11) #11
  br label %36

36:                                               ; preds = %28, %16
  ret void
}