; Function Attrs: nounwind uwtable
define dso_local void @filter_and_format_refs(ptr noundef %0, i32 noundef %1, ptr noundef %2, ptr noundef %3) local_unnamed_addr #0 {
  %5 = alloca %struct.ref_filter_cbdata, align 8
  %6 = alloca %struct.ref_filter_and_format_cbdata, align 8
  %7 = alloca %struct.ref_array, align 8
  %.not.i = icmp eq ptr %2, null
  br i1 %.not.i, label %20, label %8

8:                                                ; preds = %4
  %9 = load ptr, ptr %2, align 8, !tbaa !124
  %.not15.i = icmp eq ptr %9, null
  br i1 %.not15.i, label %10, label %can_do_iterative_format.exit.thread

10:                                               ; preds = %8
  %11 = getelementptr inbounds nuw i8, ptr %2, i64 12
  %12 = load i32, ptr %11, align 4, !tbaa !127
  %.not16.i = icmp eq i32 %12, 0
  br i1 %.not16.i, label %13, label %can_do_iterative_format.exit.thread

13:                                               ; preds = %10
  %14 = load ptr, ptr @used_atom, align 8, !tbaa !25
  %15 = getelementptr inbounds nuw i8, ptr %2, i64 8
  %16 = load i32, ptr %15, align 8, !tbaa !128
  %17 = sext i32 %16 to i64
  %18 = getelementptr inbounds %struct.used_atom, ptr %14, i64 %17
  %19 = load i32, ptr %18, align 8, !tbaa !27
  %.not17.i = icmp eq i32 %19, 0
  br i1 %.not17.i, label %20, label %can_do_iterative_format.exit.thread

20:                                               ; preds = %13, %4
  %21 = load i32, ptr @used_atom_cnt, align 4, !tbaa !4
  %22 = sext i32 %21 to i64
  %.not24.i = icmp eq i32 %21, 0
  br i1 %.not24.i, label %._crit_edge.i, label %.lr.ph.i

.lr.ph.i:                                         ; preds = %20
  %23 = load ptr, ptr @used_atom, align 8, !tbaa !25
  br label %26

24:                                               ; preds = %26
  %25 = add nuw i64 %.01123.i, 1
  %exitcond.not.i = icmp eq i64 %25, %22
  br i1 %exitcond.not.i, label %._crit_edge.i, label %26, !llvm.loop !129

26:                                               ; preds = %24, %.lr.ph.i
  %.01123.i = phi i64 [ 0, %.lr.ph.i ], [ %25, %24 ]
  %27 = getelementptr inbounds nuw %struct.used_atom, ptr %23, i64 %.01123.i
  %28 = load i32, ptr %27, align 8, !tbaa !27
  %.off.i = add i32 %28, -45
  %switch19.i = icmp ult i32 %.off.i, 2
  br i1 %switch19.i, label %can_do_iterative_format.exit.thread, label %24

._crit_edge.i:                                    ; preds = %24, %20
  %29 = getelementptr inbounds nuw i8, ptr %0, i64 80
  %30 = load ptr, ptr %29, align 8, !tbaa !130
  %.not18.i = icmp eq ptr %30, null
  br i1 %.not18.i, label %can_do_iterative_format.exit, label %can_do_iterative_format.exit.thread

can_do_iterative_format.exit:                     ; preds = %._crit_edge.i
  %31 = getelementptr inbounds nuw i8, ptr %0, i64 88
  %32 = load ptr, ptr %31, align 8, !tbaa !131
  %.not = icmp eq ptr %32, null
  br i1 %.not, label %33, label %can_do_iterative_format.exit.thread

33:                                               ; preds = %can_do_iterative_format.exit
  call void @llvm.lifetime.start.p0(i64 24, ptr nonnull %6) #23
  store ptr %0, ptr %6, align 8, !tbaa !132
  %34 = getelementptr inbounds nuw i8, ptr %6, i64 8
  store ptr %3, ptr %34, align 8, !tbaa !136
  %35 = getelementptr inbounds nuw i8, ptr %6, i64 16
  store i32 0, ptr %35, align 8
  %36 = getelementptr inbounds nuw i8, ptr %6, i64 20
  store i32 0, ptr %36, align 4
  %37 = load i32, ptr @save_commit_buffer, align 4, !tbaa !4
  store i32 0, ptr @save_commit_buffer, align 4, !tbaa !4
  %38 = call fastcc i32 @do_filter_refs(ptr noundef nonnull %0, i32 noundef %1, ptr noundef nonnull @filter_and_format_one, ptr noundef %6)
  store i32 %37, ptr @save_commit_buffer, align 4, !tbaa !4
  call void @llvm.lifetime.end.p0(i64 24, ptr nonnull %6) #23
  br label %53

can_do_iterative_format.exit.thread:              ; preds = %26, %._crit_edge.i, %8, %10, %13, %can_do_iterative_format.exit
  call void @llvm.lifetime.start.p0(i64 40, ptr nonnull %7) #23
  call void @llvm.memset.p0.i64(ptr noundef nonnull align 8 dereferenceable(40) %7, i8 0, i64 40, i1 false)
  call void @llvm.lifetime.start.p0(i64 16, ptr nonnull %5) #23
  store ptr %7, ptr %5, align 8, !tbaa !100
  %39 = getelementptr inbounds nuw i8, ptr %5, i64 8
  store ptr %0, ptr %39, align 8, !tbaa !104
  %40 = load i32, ptr @save_commit_buffer, align 4, !tbaa !4
  store i32 0, ptr @save_commit_buffer, align 4, !tbaa !4
  %41 = call fastcc i32 @do_filter_refs(ptr noundef %0, i32 noundef %1, ptr noundef nonnull @filter_one, ptr noundef %5)
  %42 = getelementptr inbounds nuw i8, ptr %0, i64 80
  call fastcc void @reach_filter(ptr noundef nonnull %7, ptr noundef nonnull %42, i32 noundef 1)
  %43 = getelementptr inbounds nuw i8, ptr %0, i64 88
  call fastcc void @reach_filter(ptr noundef nonnull %7, ptr noundef nonnull %43, i32 noundef 0)
  store i32 %40, ptr @save_commit_buffer, align 4, !tbaa !4
  call void @llvm.lifetime.end.p0(i64 16, ptr nonnull %5) #23
  %44 = load ptr, ptr @the_repository, align 8, !tbaa !49
  call void @filter_ahead_behind(ptr noundef %44, ptr noundef nonnull %7)
  %45 = load ptr, ptr @the_repository, align 8, !tbaa !49
  call void @filter_is_base(ptr noundef %45, ptr noundef nonnull %7)
  br i1 %.not.i, label %ref_array_sort.exit, label %46

46:                                               ; preds = %can_do_iterative_format.exit.thread
  %47 = getelementptr inbounds nuw i8, ptr %7, i64 8
  %48 = load ptr, ptr %47, align 8, !tbaa !66
  %49 = load i32, ptr %7, align 8, !tbaa !60
  %50 = sext i32 %49 to i64
  %51 = call i32 @git_qsort_s(ptr noundef %48, i64 noundef %50, i64 noundef 8, ptr noundef nonnull @compare_refs, ptr noundef nonnull %2) #23
  %.not4.i = icmp eq i32 %51, 0
  br i1 %.not4.i, label %ref_array_sort.exit, label %52

52:                                               ; preds = %46
  call void (ptr, i32, ptr, ...) @BUG_fl(ptr noundef nonnull @.str.16, i32 noundef 3448, ptr noundef nonnull @.str.17) #25
  unreachable

ref_array_sort.exit:                              ; preds = %can_do_iterative_format.exit.thread, %46
  call void @print_formatted_ref_array(ptr noundef nonnull %7, ptr noundef %3)
  call void @ref_array_clear(ptr noundef nonnull %7)
  call void @llvm.lifetime.end.p0(i64 40, ptr nonnull %7) #23
  br label %53

53:                                               ; preds = %ref_array_sort.exit, %33
  ret void
}